target datalayout = "e-m:e-p270:32:32-p271:32:32-p272:64:64-i64:64-i128:128-f80:128-n8:16:32:64-S128"
target triple = "x86_64-pc-linux-gnu"

%struct.Vec_Int_t_ = type { i32, i32, ptr }
%struct.Gia_Man_t_ = type { ptr, ptr, i32, i32, i32, i32, ptr, ptr, i32, i32, i32, ptr, ptr, %struct.Vec_Int_t_, %struct.Vec_Int_t_, i32, i32, i32, %struct.Vec_Int_t_, ptr, ptr, ptr, i32, i32, i32, i32, ptr, ptr, ptr, ptr, ptr, i32, i32, ptr, i32, ptr, ptr, ptr, ptr, ptr, ptr, ptr, ptr, ptr, ptr, ptr, ptr, ptr, ptr, ptr, ptr, ptr, ptr, %struct.Vec_Int_t_, %struct.Vec_Int_t_, ptr, ptr, ptr, ptr, ptr, ptr, ptr, ptr, ptr, ptr, ptr, ptr, ptr, ptr, ptr, ptr, ptr, ptr, ptr, ptr, ptr, i32, float, float, ptr, ptr, i32, ptr, ptr, ptr, ptr, ptr, ptr, ptr, ptr, ptr, ptr, ptr, ptr, ptr, ptr, ptr, i64, i64, ptr, ptr, i32, i32, i32, i32, i32, i32, i32, i32, i32, i32, i32, i32, ptr, ptr, ptr, ptr, ptr, ptr, ptr, ptr, i32, i32, i32, ptr, i32, i32, ptr, ptr, ptr, ptr, ptr, ptr, i32, i32, ptr, %struct.Vec_Int_t_, %struct.Vec_Int_t_, %struct.Vec_Int_t_, ptr, ptr, ptr, i32, i32, i32, i32, ptr, ptr, ptr, ptr, ptr }
%struct.Vec_Wec_t_ = type { i32, i32, ptr }

@.str = private unnamed_addr constant [7 x i8] c"%6d : \00", align 1
@.str.1 = private unnamed_addr constant [12 x i8] c"Leaf =%3d  \00", align 1
@.str.2 = private unnamed_addr constant [12 x i8] c"Mffc =%4d  \00", align 1
@.str.3 = private unnamed_addr constant [12 x i8] c"Divs =%4d  \00", align 1
@.str.4 = private unnamed_addr constant [2 x i8] c"\0A\00", align 1
@.str.5 = private unnamed_addr constant [94 x i8] c"Collected %d (%.1f %%) MFFCs and %d (%.1f %%) have no divisors (div ave for others is %.2f).\0A\00", align 1
@.str.6 = private unnamed_addr constant [51 x i8] c"Using %.2f MB for MFFCs and %.2f MB for pivots.   \00", align 1

; Function Attrs: inlinehint nounwind uwtable
define internal i32 @Vec_IntCap(ptr noundef %0) #2 {
  %2 = alloca ptr, align 8
  store ptr %0, ptr %2, align 8, !tbaa !12
  %3 = load ptr, ptr %2, align 8, !tbaa !12
  %4 = getelementptr inbounds nuw %struct.Vec_Int_t_, ptr %3, i32 0, i32 0
  %5 = load i32, ptr %4, align 8, !tbaa !17
  ret i32 %5
}

; Function Attrs: inlinehint nounwind uwtable
define internal i32 @Vec_WecCap(ptr noundef %0) #2 {
  %2 = alloca ptr, align 8
  store ptr %0, ptr %2, align 8, !tbaa !40
  %3 = load ptr, ptr %2, align 8, !tbaa !40
  %4 = getelementptr inbounds nuw %struct.Vec_Wec_t_, ptr %3, i32 0, i32 0
  %5 = load i32, ptr %4, align 8, !tbaa !47
  ret i32 %5
}

; Function Attrs: inlinehint nounwind uwtable
define internal double @Vec_WecMemory(ptr noundef %0) #2 {
  %2 = alloca double, align 8
  %3 = alloca ptr, align 8
  %4 = alloca i32, align 4
  %5 = alloca double, align 8
  %6 = alloca i32, align 4
  store ptr %0, ptr %3, align 8, !tbaa !40
  call void @llvm.lifetime.start.p0(i64 4, ptr %4) #14
  call void @llvm.lifetime.start.p0(i64 8, ptr %5) #14
  %7 = load ptr, ptr %3, align 8, !tbaa !40
  %8 = icmp eq ptr %7, null
  br i1 %8, label %9, label %10

9:                                                ; preds = %1
  store double 0.000000e+00, ptr %2, align 8
  store i32 1, ptr %6, align 4
  br label %37

10:                                               ; preds = %1
  %11 = load ptr, ptr %3, align 8, !tbaa !40
  %12 = call i32 @Vec_WecCap(ptr noundef %11)
  %13 = sext i32 %12 to i64
  %14 = mul i64 16, %13
  %15 = uitofp i64 %14 to double
  store double %15, ptr %5, align 8, !tbaa !54
  store i32 0, ptr %4, align 4, !tbaa !10
  br label %16

16:                                               ; preds = %32, %10
  %17 = load i32, ptr %4, align 4, !tbaa !10
  %18 = load ptr, ptr %3, align 8, !tbaa !40
  %19 = getelementptr inbounds nuw %struct.Vec_Wec_t_, ptr %18, i32 0, i32 1
  %20 = load i32, ptr %19, align 4, !tbaa !45
  %21 = icmp slt i32 %17, %20
  br i1 %21, label %22, label %35

22:                                               ; preds = %16
  %23 = load ptr, ptr %3, align 8, !tbaa !40
  %24 = load i32, ptr %4, align 4, !tbaa !10
  %25 = call ptr @Vec_WecEntry(ptr noundef %23, i32 noundef %24)
  %26 = call i32 @Vec_IntCap(ptr noundef %25)
  %27 = sext i32 %26 to i64
  %28 = mul i64 4, %27
  %29 = uitofp i64 %28 to double
  %30 = load double, ptr %5, align 8, !tbaa !54
  %31 = fadd double %30, %29
  store double %31, ptr %5, align 8, !tbaa !54
  br label %32

32:                                               ; preds = %22
  %33 = load i32, ptr %4, align 4, !tbaa !10
  %34 = add nsw i32 %33, 1
  store i32 %34, ptr %4, align 4, !tbaa !10
  br label %16, !llvm.loop !56

35:                                               ; preds = %16
  %36 = load double, ptr %5, align 8, !tbaa !54
  store double %36, ptr %2, align 8
  store i32 1, ptr %6, align 4
  br label %37

37:                                               ; preds = %35, %9
  call void @llvm.lifetime.end.p0(i64 8, ptr %5) #14
  call void @llvm.lifetime.end.p0(i64 4, ptr %4) #14
  %38 = load double, ptr %2, align 8
  ret double %38
}

; Function Attrs: inlinehint nounwind uwtable
define internal i32 @Abc_MaxInt(i32 noundef %0, i32 noundef %1) #2 {
  %3 = alloca i32, align 4
  %4 = alloca i32, align 4
  store i32 %0, ptr %3, align 4, !tbaa !10
  store i32 %1, ptr %4, align 4, !tbaa !10
  %5 = load i32, ptr %3, align 4, !tbaa !10
  %6 = load i32, ptr %4, align 4, !tbaa !10
  %7 = icmp sgt i32 %5, %6
  br i1 %7, label %8, label %10

8:                                                ; preds = %2
  %9 = load i32, ptr %3, align 4, !tbaa !10
  br label %12

10:                                               ; preds = %2
  %11 = load i32, ptr %4, align 4, !tbaa !10
  br label %12

12:                                               ; preds = %10, %8
  %13 = phi i32 [ %9, %8 ], [ %11, %10 ]
  ret i32 %13
}

; Function Attrs: inlinehint nounwind uwtable
define internal i32 @Gia_ManAndNum(ptr noundef %0) #2 {
  %2 = alloca ptr, align 8
  store ptr %0, ptr %2, align 8, !tbaa !3
  %3 = load ptr, ptr %2, align 8, !tbaa !3
  %4 = getelementptr inbounds nuw %struct.Gia_Man_t_, ptr %3, i32 0, i32 4
  %5 = load i32, ptr %4, align 8, !tbaa !41
  %6 = load ptr, ptr %2, align 8, !tbaa !3
  %7 = getelementptr inbounds nuw %struct.Gia_Man_t_, ptr %6, i32 0, i32 11
  %8 = load ptr, ptr %7, align 8, !tbaa !52
  %9 = call i32 @Vec_IntSize(ptr noundef %8)
  %10 = sub nsw i32 %5, %9
  %11 = load ptr, ptr %2, align 8, !tbaa !3
  %12 = getelementptr inbounds nuw %struct.Gia_Man_t_, ptr %11, i32 0, i32 12
  %13 = load ptr, ptr %12, align 8, !tbaa !53
  %14 = call i32 @Vec_IntSize(ptr noundef %13)
  %15 = sub nsw i32 %10, %14
  %16 = sub nsw i32 %15, 1
  ret i32 %16
}

; Function Attrs: inlinehint nounwind uwtable
define internal i32 @Vec_IntEntry(ptr noundef %0, i32 noundef %1) #2 {
  %3 = alloca ptr, align 8
  %4 = alloca i32, align 4
  store ptr %0, ptr %3, align 8, !tbaa !12
  store i32 %1, ptr %4, align 4, !tbaa !10
  %5 = load ptr, ptr %3, align 8, !tbaa !12
  %6 = getelementptr inbounds nuw %struct.Vec_Int_t_, ptr %5, i32 0, i32 2
  %7 = load ptr, ptr %6, align 8, !tbaa !18
  %8 = load i32, ptr %4, align 4, !tbaa !10
  %9 = sext i32 %8 to i64
  %10 = getelementptr inbounds i32, ptr %7, i64 %9
  %11 = load i32, ptr %10, align 4, !tbaa !10
  ret i32 %11
}

; Function Attrs: inlinehint nounwind uwtable
define internal i32 @Vec_IntSize(ptr noundef %0) #2 {
  %2 = alloca ptr, align 8
  store ptr %0, ptr %2, align 8, !tbaa !12
  %3 = load ptr, ptr %2, align 8, !tbaa !12
  %4 = getelementptr inbounds nuw %struct.Vec_Int_t_, ptr %3, i32 0, i32 1
  %5 = load i32, ptr %4, align 4, !tbaa !14
  ret i32 %5
}

; Function Attrs: inlinehint nounwind uwtable
define internal ptr @Vec_WecEntry(ptr noundef %0, i32 noundef %1) #2 {
  %3 = alloca ptr, align 8
  %4 = alloca i32, align 4
  store ptr %0, ptr %3, align 8, !tbaa !40
  store i32 %1, ptr %4, align 4, !tbaa !10
  %5 = load ptr, ptr %3, align 8, !tbaa !40
  %6 = getelementptr inbounds nuw %struct.Vec_Wec_t_, ptr %5, i32 0, i32 2
  %7 = load ptr, ptr %6, align 8, !tbaa !48
  %8 = load i32, ptr %4, align 4, !tbaa !10
  %9 = sext i32 %8 to i64
  %10 = getelementptr inbounds %struct.Vec_Int_t_, ptr %7, i64 %9
  ret ptr %10
}

; Function Attrs: inlinehint nounwind uwtable
define internal i32 @Vec_WecSize(ptr noundef %0) #2 {
  %2 = alloca ptr, align 8
  store ptr %0, ptr %2, align 8, !tbaa !40
  %3 = load ptr, ptr %2, align 8, !tbaa !40
  %4 = getelementptr inbounds nuw %struct.Vec_Wec_t_, ptr %3, i32 0, i32 1
  %5 = load i32, ptr %4, align 4, !tbaa !45
  ret i32 %5
}

; Function Attrs: nounwind uwtable
define void @Gia_ManPrintDivStats(ptr noundef %0, ptr noundef %1, ptr noundef %2) #0 {
  %4 = alloca ptr, align 8
  %5 = alloca ptr, align 8
  %6 = alloca ptr, align 8
  %7 = alloca i32, align 4
  %8 = alloca ptr, align 8
  %9 = alloca i32, align 4
  %10 = alloca i32, align 4
  %11 = alloca i32, align 4
  %12 = alloca i32, align 4
  store ptr %0, ptr %4, align 8, !tbaa !3
  store ptr %1, ptr %5, align 8, !tbaa !40
  store ptr %2, ptr %6, align 8, !tbaa !40
  call void @llvm.lifetime.start.p0(i64 4, ptr %7) #14
  store i32 0, ptr %7, align 4, !tbaa !10
  call void @llvm.lifetime.start.p0(i64 8, ptr %8) #14
  call void @llvm.lifetime.start.p0(i64 4, ptr %9) #14
  call void @llvm.lifetime.start.p0(i64 4, ptr %10) #14
  call void @llvm.lifetime.start.p0(i64 4, ptr %11) #14
  store i32 0, ptr %11, align 4, !tbaa !10
  call void @llvm.lifetime.start.p0(i64 4, ptr %12) #14
  store i32 0, ptr %12, align 4, !tbaa !10
  store i32 0, ptr %9, align 4, !tbaa !10
  br label %13

13:                                               ; preds = %58, %3
  %14 = load i32, ptr %9, align 4, !tbaa !10
  %15 = load ptr, ptr %5, align 8, !tbaa !40
  %16 = call i32 @Vec_WecSize(ptr noundef %15)
  %17 = icmp slt i32 %14, %16
  br i1 %17, label %18, label %22

18:                                               ; preds = %13
  %19 = load ptr, ptr %5, align 8, !tbaa !40
  %20 = load i32, ptr %9, align 4, !tbaa !10
  %21 = call ptr @Vec_WecEntry(ptr noundef %19, i32 noundef %20)
  store ptr %21, ptr %8, align 8, !tbaa !12
  br label %22

22:                                               ; preds = %18, %13
  %23 = phi i1 [ false, %13 ], [ true, %18 ]
  br i1 %23, label %24, label %61

24:                                               ; preds = %22
  %25 = load ptr, ptr %8, align 8, !tbaa !12
  %26 = call i32 @Vec_IntSize(ptr noundef %25)
  %27 = sub nsw i32 %26, 3
  %28 = load ptr, ptr %8, align 8, !tbaa !12
  %29 = call i32 @Vec_IntEntry(ptr noundef %28, i32 noundef 1)
  %30 = sub nsw i32 %27, %29
  %31 = load ptr, ptr %8, align 8, !tbaa !12
  %32 = call i32 @Vec_IntEntry(ptr noundef %31, i32 noundef 2)
  %33 = sub nsw i32 %30, %32
  store i32 %33, ptr %10, align 4, !tbaa !10
  %34 = load i32, ptr %10, align 4, !tbaa !10
  %35 = icmp eq i32 %34, 0
  %36 = zext i1 %35 to i32
  %37 = load i32, ptr %12, align 4, !tbaa !10
  %38 = add nsw i32 %37, %36
  store i32 %38, ptr %12, align 4, !tbaa !10
  %39 = load i32, ptr %10, align 4, !tbaa !10
  %40 = load i32, ptr %11, align 4, !tbaa !10
  %41 = add nsw i32 %40, %39
  store i32 %41, ptr %11, align 4, !tbaa !10
  %42 = load i32, ptr %7, align 4, !tbaa !10
  %43 = icmp ne i32 %42, 0
  br i1 %43, label %45, label %44

44:                                               ; preds = %24
  br label %58

45:                                               ; preds = %24
  %46 = load ptr, ptr %8, align 8, !tbaa !12
  %47 = call i32 @Vec_IntEntry(ptr noundef %46, i32 noundef 0)
  %48 = call i32 (ptr, ...) @printf(ptr noundef @.str, i32 noundef %47)
  %49 = load ptr, ptr %8, align 8, !tbaa !12
  %50 = call i32 @Vec_IntEntry(ptr noundef %49, i32 noundef 1)
  %51 = call i32 (ptr, ...) @printf(ptr noundef @.str.1, i32 noundef %50)
  %52 = load ptr, ptr %8, align 8, !tbaa !12
  %53 = call i32 @Vec_IntEntry(ptr noundef %52, i32 noundef 2)
  %54 = call i32 (ptr, ...) @printf(ptr noundef @.str.2, i32 noundef %53)
  %55 = load i32, ptr %10, align 4, !tbaa !10
  %56 = call i32 (ptr, ...) @printf(ptr noundef @.str.3, i32 noundef %55)
  %57 = call i32 (ptr, ...) @printf(ptr noundef @.str.4)
  br label %58

58:                                               ; preds = %45, %44
  %59 = load i32, ptr %9, align 4, !tbaa !10
  %60 = add nsw i32 %59, 1
  store i32 %60, ptr %9, align 4, !tbaa !10
  br label %13, !llvm.loop !51

61:                                               ; preds = %22
  %62 = load ptr, ptr %5, align 8, !tbaa !40
  %63 = call i32 @Vec_WecSize(ptr noundef %62)
  %64 = load ptr, ptr %5, align 8, !tbaa !40
  %65 = call i32 @Vec_WecSize(ptr noundef %64)
  %66 = sitofp i32 %65 to double
  %67 = fmul double 1.000000e+02, %66
  %68 = load ptr, ptr %4, align 8, !tbaa !3
  %69 = call i32 @Gia_ManAndNum(ptr noundef %68)
  %70 = sitofp i32 %69 to double
  %71 = fdiv double %67, %70
  %72 = load i32, ptr %12, align 4, !tbaa !10
  %73 = load i32, ptr %12, align 4, !tbaa !10
  %74 = sitofp i32 %73 to double
  %75 = fmul double 1.000000e+02, %74
  %76 = load ptr, ptr %4, align 8, !tbaa !3
  %77 = call i32 @Gia_ManAndNum(ptr noundef %76)
  %78 = sitofp i32 %77 to double
  %79 = fdiv double %75, %78
  %80 = load i32, ptr %11, align 4, !tbaa !10
  %81 = sitofp i32 %80 to double
  %82 = fmul double 1.000000e+00, %81
  %83 = load ptr, ptr %5, align 8, !tbaa !40
  %84 = call i32 @Vec_WecSize(ptr noundef %83)
  %85 = load i32, ptr %12, align 4, !tbaa !10
  %86 = sub nsw i32 %84, %85
  %87 = call i32 @Abc_MaxInt(i32 noundef 1, i32 noundef %86)
  %88 = sitofp i32 %87 to double
  %89 = fdiv double %82, %88
  %90 = call i32 (ptr, ...) @printf(ptr noundef @.str.5, i32 noundef %63, double noundef %71, i32 noundef %72, double noundef %79, double noundef %89)
  %91 = load ptr, ptr %5, align 8, !tbaa !40
  %92 = call double @Vec_WecMemory(ptr noundef %91)
  %93 = fdiv double %92, 0x4130000000000000
  %94 = load ptr, ptr %6, align 8, !tbaa !40
  %95 = call double @Vec_WecMemory(ptr noundef %94)
  %96 = fdiv double %95, 0x4130000000000000
  %97 = call i32 (ptr, ...) @printf(ptr noundef @.str.6, double noundef %93, double noundef %96)
  call void @llvm.lifetime.end.p0(i64 4, ptr %12) #14
  call void @llvm.lifetime.end.p0(i64 4, ptr %11) #14
  call void @llvm.lifetime.end.p0(i64 4, ptr %10) #14
  call void @llvm.lifetime.end.p0(i64 4, ptr %9) #14
  call void @llvm.lifetime.end.p0(i64 8, ptr %8) #14
  call void @llvm.lifetime.end.p0(i64 4, ptr %7) #14
  ret void
}