; Function Attrs: nofree nounwind uwtable
define void @Gia_ManPrintDivStats(ptr noundef readonly captures(none) %0, ptr noundef readonly captures(none) %1, ptr noundef readonly %2) local_unnamed_addr #3 {
  %4 = getelementptr i8, ptr %1, i64 4
  %.val34 = load i32, ptr %4, align 4, !tbaa !37
  %5 = icmp sgt i32 %.val34, 0
  br i1 %5, label %.lr.ph, label %._crit_edge

.lr.ph:                                           ; preds = %3
  %6 = getelementptr i8, ptr %1, i64 8
  %.val35 = load ptr, ptr %6, align 8, !tbaa !40
  %wide.trip.count = zext nneg i32 %.val34 to i64
  br label %7

7:                                                ; preds = %.lr.ph, %7
  %indvars.iv = phi i64 [ 0, %.lr.ph ], [ %indvars.iv.next, %7 ]
  %.054 = phi i32 [ 0, %.lr.ph ], [ %21, %7 ]
  %.02753 = phi i32 [ 0, %.lr.ph ], [ %18, %7 ]
  %8 = getelementptr inbounds nuw %struct.Vec_Int_t_, ptr %.val35, i64 %indvars.iv
  %9 = getelementptr i8, ptr %8, i64 4
  %.val = load i32, ptr %9, align 4, !tbaa !28
  %10 = getelementptr i8, ptr %8, i64 8
  %.val30 = load ptr, ptr %10, align 8, !tbaa !30
  %11 = getelementptr inbounds nuw i8, ptr %.val30, i64 4
  %12 = load i32, ptr %11, align 4, !tbaa !31
  %13 = getelementptr inbounds nuw i8, ptr %.val30, i64 8
  %14 = load i32, ptr %13, align 4, !tbaa !31
  %15 = add nsw i32 %.val, -3
  %16 = add i32 %14, %12
  %17 = add i32 %15, %.02753
  %18 = sub i32 %17, %16
  %19 = icmp eq i32 %15, %16
  %20 = zext i1 %19 to i32
  %21 = add nuw nsw i32 %.054, %20
  %indvars.iv.next = add nuw nsw i64 %indvars.iv, 1
  %exitcond.not = icmp eq i64 %indvars.iv.next, %wide.trip.count
  br i1 %exitcond.not, label %._crit_edge.loopexit, label %7, !llvm.loop !47

._crit_edge.loopexit:                             ; preds = %7
  %22 = sitofp i32 %18 to double
  br label %._crit_edge

._crit_edge:                                      ; preds = %._crit_edge.loopexit, %3
  %.027.lcssa = phi double [ 0.000000e+00, %3 ], [ %22, %._crit_edge.loopexit ]
  %.0.lcssa = phi i32 [ 0, %3 ], [ %21, %._crit_edge.loopexit ]
  %23 = sitofp i32 %.val34 to double
  %24 = fmul double %23, 1.000000e+02
  %25 = getelementptr inbounds nuw i8, ptr %0, i64 24
  %26 = load i32, ptr %25, align 8, !tbaa !41
  %27 = getelementptr inbounds nuw i8, ptr %0, i64 64
  %28 = load ptr, ptr %27, align 8, !tbaa !48
  %29 = getelementptr i8, ptr %28, i64 4
  %.val3.i = load i32, ptr %29, align 4, !tbaa !28
  %30 = getelementptr inbounds nuw i8, ptr %0, i64 72
  %31 = load ptr, ptr %30, align 8, !tbaa !49
  %32 = getelementptr i8, ptr %31, i64 4
  %.val.i = load i32, ptr %32, align 4, !tbaa !28
  %33 = add i32 %.val.i, %.val3.i
  %34 = xor i32 %33, -1
  %35 = add i32 %26, %34
  %36 = sitofp i32 %35 to double
  %37 = fdiv double %24, %36
  %38 = uitofp nneg i32 %.0.lcssa to double
  %39 = fmul double %38, 1.000000e+02
  %40 = fdiv double %39, %36
  %41 = sub nsw i32 %.val34, %.0.lcssa
  %42 = tail call noundef i32 @llvm.smax.i32(i32 %41, i32 1)
  %43 = uitofp nneg i32 %42 to double
  %44 = fdiv double %.027.lcssa, %43
  %45 = tail call i32 (ptr, ...) @printf(ptr noundef nonnull dereferenceable(1) @.str.5, i32 noundef %.val34, double noundef %37, i32 noundef %.0.lcssa, double noundef %40, double noundef %44)
  %.val12.i = load i32, ptr %1, align 8, !tbaa !39
  %46 = sext i32 %.val12.i to i64
  %47 = shl nsw i64 %46, 4
  %48 = uitofp i64 %47 to double
  %49 = load i32, ptr %4, align 4, !tbaa !37
  %50 = icmp sgt i32 %49, 0
  br i1 %50, label %.lr.ph.i, label %Vec_WecMemory.exit

.lr.ph.i:                                         ; preds = %._crit_edge
  %51 = getelementptr i8, ptr %1, i64 8
  %.val.i38 = load ptr, ptr %51, align 8, !tbaa !40
  %wide.trip.count.i = zext nneg i32 %49 to i64
  br label %52

52:                                               ; preds = %52, %.lr.ph.i
  %indvars.iv.i = phi i64 [ 0, %.lr.ph.i ], [ %indvars.iv.next.i, %52 ]
  %.015.i = phi double [ %48, %.lr.ph.i ], [ %57, %52 ]
  %53 = getelementptr inbounds nuw %struct.Vec_Int_t_, ptr %.val.i38, i64 %indvars.iv.i
  %.val13.i = load i32, ptr %53, align 8, !tbaa !29
  %54 = sext i32 %.val13.i to i64
  %55 = shl nsw i64 %54, 2
  %56 = uitofp i64 %55 to double
  %57 = fadd double %.015.i, %56
  %indvars.iv.next.i = add nuw nsw i64 %indvars.iv.i, 1
  %exitcond.not.i = icmp eq i64 %indvars.iv.next.i, %wide.trip.count.i
  br i1 %exitcond.not.i, label %Vec_WecMemory.exit, label %52, !llvm.loop !50

Vec_WecMemory.exit:                               ; preds = %52, %._crit_edge
  %.010.i = phi double [ %48, %._crit_edge ], [ %57, %52 ]
  %58 = icmp eq ptr %2, null
  br i1 %58, label %Vec_WecMemory.exit49, label %59

59:                                               ; preds = %Vec_WecMemory.exit
  %.val12.i39 = load i32, ptr %2, align 8, !tbaa !39
  %60 = sext i32 %.val12.i39 to i64
  %61 = shl nsw i64 %60, 4
  %62 = uitofp i64 %61 to double
  %63 = getelementptr inbounds nuw i8, ptr %2, i64 4
  %64 = load i32, ptr %63, align 4, !tbaa !37
  %65 = icmp sgt i32 %64, 0
  br i1 %65, label %.lr.ph.i41, label %Vec_WecMemory.exit49

.lr.ph.i41:                                       ; preds = %59
  %66 = getelementptr i8, ptr %2, i64 8
  %.val.i42 = load ptr, ptr %66, align 8, !tbaa !40
  %wide.trip.count.i43 = zext nneg i32 %64 to i64
  br label %67

67:                                               ; preds = %67, %.lr.ph.i41
  %indvars.iv.i44 = phi i64 [ 0, %.lr.ph.i41 ], [ %indvars.iv.next.i47, %67 ]
  %.015.i45 = phi double [ %62, %.lr.ph.i41 ], [ %72, %67 ]
  %68 = getelementptr inbounds nuw %struct.Vec_Int_t_, ptr %.val.i42, i64 %indvars.iv.i44
  %.val13.i46 = load i32, ptr %68, align 8, !tbaa !29
  %69 = sext i32 %.val13.i46 to i64
  %70 = shl nsw i64 %69, 2
  %71 = uitofp i64 %70 to double
  %72 = fadd double %.015.i45, %71
  %indvars.iv.next.i47 = add nuw nsw i64 %indvars.iv.i44, 1
  %exitcond.not.i48 = icmp eq i64 %indvars.iv.next.i47, %wide.trip.count.i43
  br i1 %exitcond.not.i48, label %Vec_WecMemory.exit49, label %67, !llvm.loop !50

Vec_WecMemory.exit49:                             ; preds = %67, %Vec_WecMemory.exit, %59
  %.010.i40 = phi double [ 0.000000e+00, %Vec_WecMemory.exit ], [ %62, %59 ], [ %72, %67 ]
  %73 = fmul double %.010.i, 0x3EB0000000000000
  %74 = fmul double %.010.i40, 0x3EB0000000000000
  %75 = tail call i32 (ptr, ...) @printf(ptr noundef nonnull dereferenceable(1) @.str.6, double noundef %73, double noundef %74)
  ret void
}